target datalayout = "e-m:e-p270:32:32-p271:32:32-p272:64:64-i64:64-i128:128-f80:128-n8:16:32:64-S128"
target triple = "x86_64-pc-linux-gnu"

@.str.17 = private unnamed_addr constant [18 x i8] c"/proc/%lu/cmdline\00", align 1
@.str.18 = private unnamed_addr constant [2 x i8] c"r\00", align 1

; Function Attrs: nounwind uwtable
define ptr @pmix_ptl_base_get_cmd_line() #0 {
  %1 = alloca ptr, align 8
  %2 = alloca ptr, align 8
  %3 = alloca [512 x i8], align 16
  %4 = alloca ptr, align 8
  %5 = alloca i32, align 4
  %6 = alloca i32, align 4
  call void @llvm.lifetime.start.p0(i64 8, ptr %2) #11
  store ptr null, ptr %2, align 8, !tbaa !7
  call void @llvm.lifetime.start.p0(i64 512, ptr %3) #11
  call void @llvm.lifetime.start.p0(i64 8, ptr %4) #11
  call void @llvm.lifetime.start.p0(i64 4, ptr %5) #11
  %7 = call i32 @getpid() #11
  store i32 %7, ptr %5, align 4, !tbaa !3
  %8 = getelementptr inbounds [512 x i8], ptr %3, i64 0, i64 0
  %9 = load i32, ptr %5, align 4, !tbaa !3
  %10 = sext i32 %9 to i64
  %11 = call i32 (ptr, i64, ptr, ...) @pmix_snprintf(ptr noundef %8, i64 noundef 512, ptr noundef @.str.17, i64 noundef %10)
  %12 = getelementptr inbounds [512 x i8], ptr %3, i64 0, i64 0
  %13 = call noalias ptr @fopen(ptr noundef %12, ptr noundef @.str.18)
  store ptr %13, ptr %4, align 8, !tbaa !36
  %14 = load ptr, ptr %4, align 8, !tbaa !36
  %15 = icmp ne ptr null, %14
  br i1 %15, label %16, label %32

16:                                               ; preds = %0
  %17 = getelementptr inbounds [512 x i8], ptr %3, i64 0, i64 0
  %18 = load ptr, ptr %4, align 8, !tbaa !36
  %19 = call ptr @fgets(ptr noundef %17, i32 noundef 512, ptr noundef %18)
  %20 = icmp eq ptr null, %19
  br i1 %20, label %21, label %24

21:                                               ; preds = %16
  %22 = load ptr, ptr %4, align 8, !tbaa !36
  %23 = call i32 @fclose(ptr noundef %22)
  store ptr null, ptr %1, align 8
  store i32 1, ptr %6, align 4
  br label %34

24:                                               ; preds = %16
  %25 = load ptr, ptr %4, align 8, !tbaa !36
  %26 = call i32 @fclose(ptr noundef %25)
  %27 = icmp ne i32 0, %26
  br i1 %27, label %28, label %29

28:                                               ; preds = %24
  br label %29

29:                                               ; preds = %28, %24
  %30 = getelementptr inbounds [512 x i8], ptr %3, i64 0, i64 0
  %31 = call noalias ptr @strdup(ptr noundef %30) #11
  store ptr %31, ptr %2, align 8, !tbaa !7
  br label %32

32:                                               ; preds = %29, %0
  %33 = load ptr, ptr %2, align 8, !tbaa !7
  store ptr %33, ptr %1, align 8
  store i32 1, ptr %6, align 4
  br label %34

34:                                               ; preds = %32, %21
  call void @llvm.lifetime.end.p0(i64 4, ptr %5) #11
  call void @llvm.lifetime.end.p0(i64 8, ptr %4) #11
  call void @llvm.lifetime.end.p0(i64 512, ptr %3) #11
  call void @llvm.lifetime.end.p0(i64 8, ptr %2) #11
  %35 = load ptr, ptr %1, align 8
  ret ptr %35
}