; Function Attrs: nounwind uwtable
define noalias ptr @pmix_ptl_base_get_cmd_line() local_unnamed_addr #0 {
  %1 = alloca [512 x i8], align 16
  call void @llvm.lifetime.start.p0(i64 512, ptr nonnull %1) #14
  %2 = tail call i32 @getpid() #14
  %3 = sext i32 %2 to i64
  %4 = call i32 (ptr, i64, ptr, ...) @pmix_snprintf(ptr noundef nonnull %1, i64 noundef 512, ptr noundef nonnull @.str.17, i64 noundef %3) #14
  %5 = call noalias ptr @fopen(ptr noundef nonnull %1, ptr noundef nonnull @.str.18)
  %.not = icmp eq ptr %5, null
  br i1 %.not, label %12, label %6

6:                                                ; preds = %0
  %7 = call ptr @fgets(ptr noundef nonnull %1, i32 noundef 512, ptr noundef nonnull %5)
  %8 = icmp eq ptr %7, null
  %9 = call i32 @fclose(ptr noundef nonnull %5)
  br i1 %8, label %12, label %10

10:                                               ; preds = %6
  %11 = call noalias ptr @strdup(ptr noundef nonnull %1) #14
  br label %12

12:                                               ; preds = %6, %0, %10
  %.0 = phi ptr [ %11, %10 ], [ null, %0 ], [ null, %6 ]
  call void @llvm.lifetime.end.p0(i64 512, ptr nonnull %1) #14
  ret ptr %.0
}